target datalayout = "e-m:e-p270:32:32-p271:32:32-p272:64:64-i64:64-i128:128-f80:128-n8:16:32:64-S128"
target triple = "x86_64-pc-linux-gnu"

%struct.nameData = type { [64 x i8] }
%struct.RelationData = type { %struct.RelFileLocator, ptr, i32, i32, i8, i8, i8, i8, i8, i32, i32, i32, i32, ptr, ptr, i32, %struct.LockInfoData, ptr, ptr, ptr, ptr, ptr, i8, ptr, ptr, ptr, ptr, ptr, ptr, i32, ptr, i8, ptr, ptr, i32, i8, i32, ptr, i8, ptr, ptr, ptr, ptr, ptr, ptr, ptr, i32, ptr, ptr, ptr, ptr, ptr, ptr, ptr, ptr, ptr, ptr, ptr, ptr, ptr, ptr, ptr, ptr, ptr, ptr, ptr, i32, i8, ptr }
%struct.RelFileLocator = type { i32, i32, i32 }
%struct.LockInfoData = type { %struct.LockRelId }
%struct.LockRelId = type { i32, i32 }
%struct.FormData_pg_class = type { i32, %struct.nameData, i32, i32, i32, i32, i32, i32, i32, i32, float, i32, i32, i8, i8, i8, i8, i16, i16, i8, i8, i8, i8, i8, i8, i8, i8, i32, i32, i32 }

@criticalRelcachesBuilt = dso_local global i8 0, align 1
@CurrentMemoryContext = external global ptr, align 8

; Function Attrs: inlinehint nounwind uwtable
define internal i64 @PointerGetDatum(ptr noundef %0) #3 {
  %2 = alloca ptr, align 8
  store ptr %0, ptr %2, align 8
  %3 = load ptr, ptr %2, align 8
  %4 = ptrtoint ptr %3 to i64
  ret i64 %4
}

; Function Attrs: inlinehint nounwind uwtable
define internal ptr @MemoryContextSwitchTo(ptr noundef %0) #3 {
  %2 = alloca ptr, align 8
  %3 = alloca ptr, align 8
  store ptr %0, ptr %2, align 8
  call void @llvm.lifetime.start.p0(i64 8, ptr %3) #11
  %4 = load ptr, ptr @CurrentMemoryContext, align 8
  store ptr %4, ptr %3, align 8
  %5 = load ptr, ptr %2, align 8
  store ptr %5, ptr @CurrentMemoryContext, align 8
  %6 = load ptr, ptr %3, align 8
  call void @llvm.lifetime.end.p0(i64 8, ptr %3) #11
  ret ptr %6
}

; Function Attrs: inlinehint nounwind uwtable
define internal ptr @DatumGetPointer(i64 noundef %0) #3 {
  %2 = alloca i64, align 8
  store i64 %0, ptr %2, align 8
  %3 = load i64, ptr %2, align 8
  %4 = inttoptr i64 %3 to ptr
  ret ptr %4
}

; Function Attrs: nounwind uwtable
define internal ptr @CopyIndexAttOptions(ptr noundef %0, i32 noundef %1) #0 {
  %3 = alloca ptr, align 8
  %4 = alloca i32, align 4
  %5 = alloca ptr, align 8
  %6 = alloca i32, align 4
  %7 = alloca ptr, align 8
  store ptr %0, ptr %3, align 8
  store i32 %1, ptr %4, align 4
  call void @llvm.lifetime.start.p0(i64 8, ptr %5) #11
  %8 = load i32, ptr %4, align 4
  %9 = sext i32 %8 to i64
  %10 = mul i64 8, %9
  %11 = call ptr @palloc(i64 noundef %10)
  store ptr %11, ptr %5, align 8
  call void @llvm.lifetime.start.p0(i64 4, ptr %6) #11
  store i32 0, ptr %6, align 4
  br label %12

12:                                               ; preds = %37, %2
  %13 = load i32, ptr %6, align 4
  %14 = load i32, ptr %4, align 4
  %15 = icmp slt i32 %13, %14
  br i1 %15, label %17, label %16

16:                                               ; preds = %12
  call void @llvm.lifetime.end.p0(i64 4, ptr %6) #11
  br label %40

17:                                               ; preds = %12
  call void @llvm.lifetime.start.p0(i64 8, ptr %7) #11
  %18 = load ptr, ptr %3, align 8
  %19 = load i32, ptr %6, align 4
  %20 = sext i32 %19 to i64
  %21 = getelementptr inbounds ptr, ptr %18, i64 %20
  %22 = load ptr, ptr %21, align 8
  store ptr %22, ptr %7, align 8
  %23 = load ptr, ptr %7, align 8
  %24 = icmp ne ptr %23, null
  br i1 %24, label %26, label %25

25:                                               ; preds = %17
  br label %31

26:                                               ; preds = %17
  %27 = load ptr, ptr %7, align 8
  %28 = call i64 @PointerGetDatum(ptr noundef %27)
  %29 = call i64 @datumCopy(i64 noundef %28, i1 noundef zeroext false, i32 noundef -1)
  %30 = call ptr @DatumGetPointer(i64 noundef %29)
  br label %31

31:                                               ; preds = %26, %25
  %32 = phi ptr [ null, %25 ], [ %30, %26 ]
  %33 = load ptr, ptr %5, align 8
  %34 = load i32, ptr %6, align 4
  %35 = sext i32 %34 to i64
  %36 = getelementptr inbounds ptr, ptr %33, i64 %35
  store ptr %32, ptr %36, align 8
  call void @llvm.lifetime.end.p0(i64 8, ptr %7) #11
  br label %37

37:                                               ; preds = %31
  %38 = load i32, ptr %6, align 4
  %39 = add i32 %38, 1
  store i32 %39, ptr %6, align 4
  br label %12, !llvm.loop !42

40:                                               ; preds = %16
  %41 = load ptr, ptr %5, align 8
  call void @llvm.lifetime.end.p0(i64 8, ptr %5) #11
  ret ptr %41
}

; Function Attrs: nounwind uwtable
define dso_local ptr @RelationGetIndexAttOptions(ptr noundef %0, i1 noundef zeroext %1) #0 {
  %3 = alloca ptr, align 8
  %4 = alloca ptr, align 8
  %5 = alloca i8, align 1
  %6 = alloca ptr, align 8
  %7 = alloca ptr, align 8
  %8 = alloca i32, align 4
  %9 = alloca i32, align 4
  %10 = alloca i32, align 4
  %11 = alloca i32, align 4
  %12 = alloca i64, align 8
  store ptr %0, ptr %4, align 8
  %13 = zext i1 %1 to i8
  store i8 %13, ptr %5, align 1
  call void @llvm.lifetime.start.p0(i64 8, ptr %6) #11
  call void @llvm.lifetime.start.p0(i64 8, ptr %7) #11
  %14 = load ptr, ptr %4, align 8
  %15 = getelementptr inbounds nuw %struct.RelationData, ptr %14, i32 0, i32 63
  %16 = load ptr, ptr %15, align 8
  store ptr %16, ptr %7, align 8
  call void @llvm.lifetime.start.p0(i64 4, ptr %8) #11
  %17 = load ptr, ptr %4, align 8
  %18 = getelementptr inbounds nuw %struct.RelationData, ptr %17, i32 0, i32 15
  %19 = load i32, ptr %18, align 8
  store i32 %19, ptr %8, align 4
  call void @llvm.lifetime.start.p0(i64 4, ptr %9) #11
  %20 = load ptr, ptr %4, align 8
  %21 = getelementptr inbounds nuw %struct.RelationData, ptr %20, i32 0, i32 13
  %22 = load ptr, ptr %21, align 8
  %23 = getelementptr inbounds nuw %struct.FormData_pg_class, ptr %22, i32 0, i32 17
  %24 = load i16, ptr %23, align 4
  %25 = sext i16 %24 to i32
  store i32 %25, ptr %9, align 4
  call void @llvm.lifetime.start.p0(i64 4, ptr %10) #11
  %26 = load ptr, ptr %7, align 8
  %27 = icmp ne ptr %26, null
  br i1 %27, label %28, label %39

28:                                               ; preds = %2
  %29 = load i8, ptr %5, align 1, !range !4, !noundef !5
  %30 = trunc i8 %29 to i1
  br i1 %30, label %31, label %35

31:                                               ; preds = %28
  %32 = load ptr, ptr %7, align 8
  %33 = load i32, ptr %9, align 4
  %34 = call ptr @CopyIndexAttOptions(ptr noundef %32, i32 noundef %33)
  br label %37

35:                                               ; preds = %28
  %36 = load ptr, ptr %7, align 8
  br label %37

37:                                               ; preds = %35, %31
  %38 = phi ptr [ %34, %31 ], [ %36, %35 ]
  store ptr %38, ptr %3, align 8
  store i32 1, ptr %11, align 4
  br label %123

39:                                               ; preds = %2
  %40 = load i32, ptr %9, align 4
  %41 = sext i32 %40 to i64
  %42 = mul i64 8, %41
  %43 = call ptr @palloc0(i64 noundef %42)
  store ptr %43, ptr %7, align 8
  store i32 0, ptr %10, align 4
  br label %44

44:                                               ; preds = %77, %39
  %45 = load i32, ptr %10, align 4
  %46 = load i32, ptr %9, align 4
  %47 = icmp slt i32 %45, %46
  br i1 %47, label %48, label %80

48:                                               ; preds = %44
  %49 = load i8, ptr @criticalRelcachesBuilt, align 1, !range !4, !noundef !5
  %50 = trunc i8 %49 to i1
  br i1 %50, label %51, label %76

51:                                               ; preds = %48
  %52 = load i32, ptr %8, align 4
  %53 = icmp ne i32 %52, 2659
  br i1 %53, label %54, label %76

54:                                               ; preds = %51
  call void @llvm.lifetime.start.p0(i64 8, ptr %12) #11
  %55 = load i32, ptr %8, align 4
  %56 = load i32, ptr %10, align 4
  %57 = add i32 %56, 1
  %58 = trunc i32 %57 to i16
  %59 = call i64 @get_attoptions(i32 noundef %55, i16 noundef signext %58)
  store i64 %59, ptr %12, align 8
  %60 = load ptr, ptr %4, align 8
  %61 = load i32, ptr %10, align 4
  %62 = add i32 %61, 1
  %63 = trunc i32 %62 to i16
  %64 = load i64, ptr %12, align 8
  %65 = call ptr @index_opclass_options(ptr noundef %60, i16 noundef signext %63, i64 noundef %64, i1 noundef zeroext false)
  %66 = load ptr, ptr %7, align 8
  %67 = load i32, ptr %10, align 4
  %68 = sext i32 %67 to i64
  %69 = getelementptr inbounds ptr, ptr %66, i64 %68
  store ptr %65, ptr %69, align 8
  %70 = load i64, ptr %12, align 8
  %71 = icmp ne i64 %70, 0
  br i1 %71, label %72, label %75

72:                                               ; preds = %54
  %73 = load i64, ptr %12, align 8
  %74 = call ptr @DatumGetPointer(i64 noundef %73)
  call void @pfree(ptr noundef %74)
  br label %75

75:                                               ; preds = %72, %54
  call void @llvm.lifetime.end.p0(i64 8, ptr %12) #11
  br label %76

76:                                               ; preds = %75, %51, %48
  br label %77

77:                                               ; preds = %76
  %78 = load i32, ptr %10, align 4
  %79 = add i32 %78, 1
  store i32 %79, ptr %10, align 4
  br label %44, !llvm.loop !8

80:                                               ; preds = %44
  %81 = load ptr, ptr %4, align 8
  %82 = getelementptr inbounds nuw %struct.RelationData, ptr %81, i32 0, i32 50
  %83 = load ptr, ptr %82, align 8
  %84 = call ptr @MemoryContextSwitchTo(ptr noundef %83)
  store ptr %84, ptr %6, align 8
  %85 = load ptr, ptr %7, align 8
  %86 = load i32, ptr %9, align 4
  %87 = call ptr @CopyIndexAttOptions(ptr noundef %85, i32 noundef %86)
  %88 = load ptr, ptr %4, align 8
  %89 = getelementptr inbounds nuw %struct.RelationData, ptr %88, i32 0, i32 63
  store ptr %87, ptr %89, align 8
  %90 = load ptr, ptr %6, align 8
  %91 = call ptr @MemoryContextSwitchTo(ptr noundef %90)
  %92 = load i8, ptr %5, align 1, !range !4, !noundef !5
  %93 = trunc i8 %92 to i1
  br i1 %93, label %94, label %96

94:                                               ; preds = %80
  %95 = load ptr, ptr %7, align 8
  store ptr %95, ptr %3, align 8
  store i32 1, ptr %11, align 4
  br label %123

96:                                               ; preds = %80
  store i32 0, ptr %10, align 4
  br label %97

97:                                               ; preds = %115, %96
  %98 = load i32, ptr %10, align 4
  %99 = load i32, ptr %9, align 4
  %100 = icmp slt i32 %98, %99
  br i1 %100, label %101, label %118

101:                                              ; preds = %97
  %102 = load ptr, ptr %7, align 8
  %103 = load i32, ptr %10, align 4
  %104 = sext i32 %103 to i64
  %105 = getelementptr inbounds ptr, ptr %102, i64 %104
  %106 = load ptr, ptr %105, align 8
  %107 = icmp ne ptr %106, null
  br i1 %107, label %108, label %114

108:                                              ; preds = %101
  %109 = load ptr, ptr %7, align 8
  %110 = load i32, ptr %10, align 4
  %111 = sext i32 %110 to i64
  %112 = getelementptr inbounds ptr, ptr %109, i64 %111
  %113 = load ptr, ptr %112, align 8
  call void @pfree(ptr noundef %113)
  br label %114

114:                                              ; preds = %108, %101
  br label %115

115:                                              ; preds = %114
  %116 = load i32, ptr %10, align 4
  %117 = add i32 %116, 1
  store i32 %117, ptr %10, align 4
  br label %97, !llvm.loop !9

118:                                              ; preds = %97
  %119 = load ptr, ptr %7, align 8
  call void @pfree(ptr noundef %119)
  %120 = load ptr, ptr %4, align 8
  %121 = getelementptr inbounds nuw %struct.RelationData, ptr %120, i32 0, i32 63
  %122 = load ptr, ptr %121, align 8
  store ptr %122, ptr %3, align 8
  store i32 1, ptr %11, align 4
  br label %123

123:                                              ; preds = %118, %94, %37
  call void @llvm.lifetime.end.p0(i64 4, ptr %10) #11
  call void @llvm.lifetime.end.p0(i64 4, ptr %9) #11
  call void @llvm.lifetime.end.p0(i64 4, ptr %8) #11
  call void @llvm.lifetime.end.p0(i64 8, ptr %7) #11
  call void @llvm.lifetime.end.p0(i64 8, ptr %6) #11
  %124 = load ptr, ptr %3, align 8
  ret ptr %124
}