; Function Attrs: nounwind uwtable
define dso_local ptr @RelationGetIndexAttOptions(ptr noundef %0, i1 noundef zeroext %1) local_unnamed_addr #0 {
  %3 = getelementptr inbounds nuw i8, ptr %0, i64 448
  %4 = load ptr, ptr %3, align 8
  %5 = getelementptr inbounds nuw i8, ptr %0, i64 72
  %6 = load i32, ptr %5, align 8
  %.fr60 = freeze i32 %6
  %7 = getelementptr inbounds nuw i8, ptr %0, i64 56
  %8 = load ptr, ptr %7, align 8
  %9 = getelementptr inbounds nuw i8, ptr %8, i64 116
  %10 = load i16, ptr %9, align 4
  %11 = sext i16 %10 to i32
  %.not = icmp eq ptr %4, null
  br i1 %.not, label %27, label %12

12:                                               ; preds = %2
  br i1 %1, label %13, label %CopyIndexAttOptions.exit

13:                                               ; preds = %12
  %14 = sext i16 %10 to i64
  %15 = shl nsw i64 %14, 3
  %16 = tail call ptr @palloc(i64 noundef %15) #13
  %17 = icmp sgt i16 %10, 0
  br i1 %17, label %.lr.ph.preheader.i, label %CopyIndexAttOptions.exit

.lr.ph.preheader.i:                               ; preds = %13
  %wide.trip.count.i = zext nneg i32 %11 to i64
  br label %.lr.ph.i

.lr.ph.i:                                         ; preds = %24, %.lr.ph.preheader.i
  %indvars.iv.i = phi i64 [ 0, %.lr.ph.preheader.i ], [ %indvars.iv.next.i, %24 ]
  %18 = getelementptr inbounds nuw ptr, ptr %4, i64 %indvars.iv.i
  %19 = load ptr, ptr %18, align 8
  %.not.i = icmp eq ptr %19, null
  br i1 %.not.i, label %24, label %20

20:                                               ; preds = %.lr.ph.i
  %21 = ptrtoint ptr %19 to i64
  %22 = tail call i64 @datumCopy(i64 noundef %21, i1 noundef zeroext false, i32 noundef -1) #13
  %23 = inttoptr i64 %22 to ptr
  br label %24

24:                                               ; preds = %20, %.lr.ph.i
  %25 = phi ptr [ %23, %20 ], [ null, %.lr.ph.i ]
  %26 = getelementptr inbounds nuw ptr, ptr %16, i64 %indvars.iv.i
  store ptr %25, ptr %26, align 8
  %indvars.iv.next.i = add nuw nsw i64 %indvars.iv.i, 1
  %exitcond.not.i = icmp eq i64 %indvars.iv.next.i, %wide.trip.count.i
  br i1 %exitcond.not.i, label %CopyIndexAttOptions.exit, label %.lr.ph.i, !llvm.loop !10

27:                                               ; preds = %2
  %28 = sext i16 %10 to i64
  %29 = shl nsw i64 %28, 3
  %30 = tail call ptr @palloc0(i64 noundef %29) #13
  %31 = icmp slt i16 %10, 1
  %.not61 = icmp eq i32 %.fr60, 2659
  %or.cond = or i1 %31, %.not61
  br i1 %or.cond, label %._crit_edge, label %.lr.ph.split

.lr.ph.split:                                     ; preds = %27
  %32 = load i8, ptr @criticalRelcachesBuilt, align 1, !range !6, !noundef !7
  %33 = trunc nuw i8 %32 to i1
  br i1 %33, label %.lr.ph.split.split.preheader, label %._crit_edge

.lr.ph.split.split.preheader:                     ; preds = %.lr.ph.split
  %wide.trip.count = zext nneg i32 %11 to i64
  br label %.lr.ph.split.split

.lr.ph.split.split:                               ; preds = %.lr.ph.split.split.preheader, %44
  %indvars.iv = phi i64 [ 0, %.lr.ph.split.split.preheader ], [ %indvars.iv.next, %44 ]
  %34 = load i8, ptr @criticalRelcachesBuilt, align 1, !range !6, !noundef !7
  %35 = trunc nuw i8 %34 to i1
  br i1 %35, label %36, label %44

36:                                               ; preds = %.lr.ph.split.split
  %37 = trunc i64 %indvars.iv to i16
  %38 = add i16 %37, 1
  %39 = tail call i64 @get_attoptions(i32 noundef %.fr60, i16 noundef signext %38) #13
  %40 = tail call ptr @index_opclass_options(ptr noundef %0, i16 noundef signext %38, i64 noundef %39, i1 noundef zeroext false) #13
  %41 = getelementptr inbounds nuw ptr, ptr %30, i64 %indvars.iv
  store ptr %40, ptr %41, align 8
  %.not46 = icmp eq i64 %39, 0
  br i1 %.not46, label %44, label %42

42:                                               ; preds = %36
  %43 = inttoptr i64 %39 to ptr
  tail call void @pfree(ptr noundef nonnull %43) #13
  br label %44

44:                                               ; preds = %36, %42, %.lr.ph.split.split
  %indvars.iv.next = add nuw nsw i64 %indvars.iv, 1
  %exitcond.not = icmp eq i64 %indvars.iv.next, %wide.trip.count
  br i1 %exitcond.not, label %._crit_edge, label %.lr.ph.split.split, !llvm.loop !11

._crit_edge:                                      ; preds = %44, %.lr.ph.split, %27
  %45 = getelementptr inbounds nuw i8, ptr %0, i64 344
  %46 = load ptr, ptr %45, align 8
  %47 = load ptr, ptr @CurrentMemoryContext, align 8
  store ptr %46, ptr @CurrentMemoryContext, align 8
  %48 = tail call ptr @palloc(i64 noundef %29) #13
  br i1 %31, label %CopyIndexAttOptions.exit54.thread, label %.lr.ph.preheader.i47

.lr.ph.preheader.i47:                             ; preds = %._crit_edge
  %wide.trip.count.i48 = zext nneg i32 %11 to i64
  br label %.lr.ph.i49

.lr.ph.i49:                                       ; preds = %55, %.lr.ph.preheader.i47
  %indvars.iv.i50 = phi i64 [ 0, %.lr.ph.preheader.i47 ], [ %indvars.iv.next.i52, %55 ]
  %49 = getelementptr inbounds nuw ptr, ptr %30, i64 %indvars.iv.i50
  %50 = load ptr, ptr %49, align 8
  %.not.i51 = icmp eq ptr %50, null
  br i1 %.not.i51, label %55, label %51

51:                                               ; preds = %.lr.ph.i49
  %52 = ptrtoint ptr %50 to i64
  %53 = tail call i64 @datumCopy(i64 noundef %52, i1 noundef zeroext false, i32 noundef -1) #13
  %54 = inttoptr i64 %53 to ptr
  br label %55

55:                                               ; preds = %51, %.lr.ph.i49
  %56 = phi ptr [ %54, %51 ], [ null, %.lr.ph.i49 ]
  %57 = getelementptr inbounds nuw ptr, ptr %48, i64 %indvars.iv.i50
  store ptr %56, ptr %57, align 8
  %indvars.iv.next.i52 = add nuw nsw i64 %indvars.iv.i50, 1
  %exitcond.not.i53 = icmp eq i64 %indvars.iv.next.i52, %wide.trip.count.i48
  br i1 %exitcond.not.i53, label %CopyIndexAttOptions.exit54, label %.lr.ph.i49, !llvm.loop !10

CopyIndexAttOptions.exit54:                       ; preds = %55
  store ptr %48, ptr %3, align 8
  store ptr %47, ptr @CurrentMemoryContext, align 8
  br i1 %1, label %CopyIndexAttOptions.exit, label %.lr.ph58.preheader

CopyIndexAttOptions.exit54.thread:                ; preds = %._crit_edge
  store ptr %48, ptr %3, align 8
  store ptr %47, ptr @CurrentMemoryContext, align 8
  br i1 %1, label %CopyIndexAttOptions.exit, label %._crit_edge59

.lr.ph58.preheader:                               ; preds = %CopyIndexAttOptions.exit54
  %wide.trip.count68 = zext nneg i32 %11 to i64
  br label %.lr.ph58

.lr.ph58:                                         ; preds = %.lr.ph58.preheader, %61
  %indvars.iv65 = phi i64 [ 0, %.lr.ph58.preheader ], [ %indvars.iv.next66, %61 ]
  %58 = getelementptr inbounds nuw ptr, ptr %30, i64 %indvars.iv65
  %59 = load ptr, ptr %58, align 8
  %.not45 = icmp eq ptr %59, null
  br i1 %.not45, label %61, label %60

60:                                               ; preds = %.lr.ph58
  tail call void @pfree(ptr noundef nonnull %59) #13
  br label %61

61:                                               ; preds = %.lr.ph58, %60
  %indvars.iv.next66 = add nuw nsw i64 %indvars.iv65, 1
  %exitcond69.not = icmp eq i64 %indvars.iv.next66, %wide.trip.count68
  br i1 %exitcond69.not, label %._crit_edge59, label %.lr.ph58, !llvm.loop !13

._crit_edge59:                                    ; preds = %61, %CopyIndexAttOptions.exit54.thread
  tail call void @pfree(ptr noundef %30) #13
  %62 = load ptr, ptr %3, align 8
  br label %CopyIndexAttOptions.exit

CopyIndexAttOptions.exit:                         ; preds = %24, %CopyIndexAttOptions.exit54.thread, %13, %CopyIndexAttOptions.exit54, %12, %._crit_edge59
  %.0 = phi ptr [ %62, %._crit_edge59 ], [ %4, %12 ], [ %30, %CopyIndexAttOptions.exit54 ], [ %16, %13 ], [ %30, %CopyIndexAttOptions.exit54.thread ], [ %16, %24 ]
  ret ptr %.0
}